     1                                  extern printb
     2                                  extern printf
     3                                  
     4                                  section .data
     5                                  
     6 00000000 4E756D62657220310A-     	msgn1 db "Number 1",10,0
     6 00000009 00                 
     7 0000000A 4E756D62657220320A-     	msgn2 db "Number 2",10,0
     7 00000013 00                 
     8 00000014 786F720A00              	msg1 db "xor",10,0
     9 00000019 6F720A00                	msg2 db "or",10,0
    10 0000001D 616E640A00              	msg3 db "and",10,0
    11 00000022 6E6F74206E756D6265-     	msg4 db "not number 1",10,0
    11 0000002B 7220310A00         
    12 00000030 73686C2032206C6F77-     	msg5 db "shl 2 lower byte of number 1",10,0
    12 00000039 65722062797465206F-
    12 00000042 66206E756D62657220-
    12 0000004B 310A00             
    13 0000004E 7368722032206C6F77-     	msg6 db "shr 2 lower byte of number 1",10,0
    13 00000057 65722062797465206F-
    13 00000060 66206E756D62657220-
    13 00000069 310A00             
    14 0000006C 73616C2032206C6F77-     	msg7 db "sal 2 lower byte of number 1",10,0
    14 00000075 65722062797465206F-
    14 0000007E 66206E756D62657220-
    14 00000087 310A00             
    15                                  
    16 0000008A 7361722032206C6F77-     	msg8 db "sar 2 lower byte of number 1",10,0
    16 00000093 65722062797465206F-
    16 0000009C 66206E756D62657220-
    16 000000A5 310A00             
    17 000000A8 726F6C2032206C6F77-     	msg9 db "rol 2 lower byte of number 1",10,0
    17 000000B1 65722062797465206F-
    17 000000BA 66206E756D62657220-
    17 000000C3 310A00             
    18 000000C6 726F6C2032206C6F77-     	msg10 db "rol 2 lower byte of number 2",10,0
    18 000000CF 65722062797465206F-
    18 000000D8 66206E756D62657220-
    18 000000E1 320A00             
    19 000000E4 726F722032206C6F77-     	msg11 db "ror 2 lower byte of number 1",10,0
    19 000000ED 65722062797465206F-
    19 000000F6 66206E756D62657220-
    19 000000FF 310A00             
    20 00000102 726F722032206C6F77-     	msg12 db "ror 2 lower byte of number 2",10,0
    20 0000010B 65722062797465206F-
    20 00000114 66206E756D62657220-
    20 0000011D 320A00             
    21 00000120 B8FFFFFFFFFFFFFF        	number1 dq -72
    22 00000128 2804000000000000        	number2 dq 1064
    23                                  
    24                                  section .bss
    25                                  section .text
    26                                  global main
    27                                  main:
    28 00000000 55                      push rbp
    29 00000001 4889E5                  mov rbp,rsp
    30 00000004 4883EC08                sub rsp,8
    31                                  ;print number1
    32 00000008 48BE-                   mov rsi,msgn1
    32 0000000A [0000000000000000] 
    33 00000012 E8C9010000              call printmsg
    34 00000017 488B3C25[20010000]      mov rdi,[number1]
    35 0000001F E8(00000000)            call printb
    36                                  
    37                                  ;print number2
    38                                  
    39 00000024 48BE-                   mov rsi,msgn2
    39 00000026 [0A00000000000000] 
    40 0000002E E8AD010000              call printmsg
    41 00000033 488B3C25[28010000]      mov rdi,[number2]
    42 0000003B E8(00000000)            call printb
    43                                  
    44                                  ;print xor
    45 00000040 48BE-                   mov rsi,msg1
    45 00000042 [1400000000000000] 
    46 0000004A E891010000              call printmsg
    47                                  ;xor and print
    48 0000004F 488B0425[20010000]      mov rax,[number1]
    49 00000057 48330425[28010000]      xor rax,[number2]
    50 0000005F 4889C7                  mov rdi,rax
    51 00000062 E8(00000000)            call printb
    52                                  
    53                                  ;print or
    54 00000067 48BE-                   mov rsi,msg2
    54 00000069 [1900000000000000] 
    55 00000071 E86A010000              call printmsg
    56                                  
    57 00000076 488B0425[20010000]      mov rax,[number1]
    58 0000007E 480B0425[28010000]      or rax,[number2]
    59 00000086 4889C6                  mov rsi,rax
    60 00000089 E8(00000000)            call printb
    61                                  
    62                                  ;print and
    63 0000008E 48BE-                   mov rsi,msg3
    63 00000090 [1D00000000000000] 
    64 00000098 E843010000              call printmsg
    65                                  
    66 0000009D 488B0425[20010000]      mov rax,[number1]
    67 000000A5 48230425[28010000]      and rax,[number2]
    68 000000AD 4889C6                  mov rsi,rax
    69 000000B0 E8(00000000)            call printb
    70                                  
    71                                  ;print not
    72 000000B5 48BE-                   mov rsi,msg4
    72 000000B7 [2200000000000000] 
    73 000000BF E81C010000              call printmsg
    74                                  
    75 000000C4 488B0425[20010000]      mov rax,[number1]
    76 000000CC 48F7D0                  not rax
    77 000000CF 4889C6                  mov rsi,rax
    78 000000D2 E8(00000000)            call printb
    79                                  
    80                                  ;print shift left
    81 000000D7 48BE-                   mov rsi,msg5
    81 000000D9 [3000000000000000] 
    82 000000E1 E8FA000000              call printmsg
    83                                  
    84 000000E6 488B0425[20010000]      mov rax,[number1]
    85 000000EE C0E002                  shl al,2
    86 000000F1 4889C7                  mov rdi,rax
    87 000000F4 E8(00000000)            call printb
    88                                  
    89                                  ;print shift right
    90 000000F9 48BE-                   mov rsi,msg6
    90 000000FB [4E00000000000000] 
    91 00000103 E8D8000000              call printmsg
    92 00000108 488B0425[20010000]      mov rax,[number1]
    93 00000110 C0E802                  shr al,2
    94 00000113 4889C7                  mov rdi,rax
    95 00000116 E8(00000000)            call printb
    96                                  
    97                                  ;print shift arithmetic left
    98 0000011B 48BE-                   mov rsi,msg7
    98 0000011D [6C00000000000000] 
    99 00000125 E8B6000000              call printmsg
   100                                  
   101 0000012A 488B0425[20010000]      mov rax,[number1]
   102 00000132 C0E002                  sal al,2
   103 00000135 4889C7                  mov rdi,rax
   104 00000138 E8(00000000)            call printb
   105                                  
   106                                  ;pirnt shift arithmetic right
   107 0000013D 48BE-                   mov rsi,msg8
   107 0000013F [8A00000000000000] 
   108 00000147 E894000000              call printmsg
   109                                  
   110 0000014C 488B0425[20010000]      mov rax,[number1]
   111 00000154 C0F802                  sar al,2
   112 00000157 4889C7                  mov rdi,rax
   113 0000015A E8(00000000)            call printb
   114                                  
   115                                  ;print rotate left
   116 0000015F 48BE-                   mov rsi,msg9
   116 00000161 [A800000000000000] 
   117 00000169 C0C002                  rol al,2
   118 0000016C 4889C7                  mov rdi,rax
   119 0000016F E8(00000000)            call printb
   120 00000174 48BE-                   mov rsi,msg10
   120 00000176 [C600000000000000] 
   121 0000017E E85D000000              call printmsg
   122 00000183 488B0425[28010000]      mov rax,[number2]
   123 0000018B C0C002                  rol al,2
   124 0000018E 4889C7                  mov rdi,rax
   125 00000191 E8(00000000)            call printb
   126                                  
   127                                  ;print rotate left
   128 00000196 48BE-                   mov rsi,msg11
   128 00000198 [E400000000000000] 
   129 000001A0 E83B000000              call printmsg
   130                                  ;ror and print
   131 000001A5 488B0425[20010000]      mov rax,[number1]
   132 000001AD C0C802                  ror al,2
   133 000001B0 4889C7                  mov rdi,rax
   134 000001B3 E8(00000000)            call printb
   135 000001B8 48BE-                   mov rsi,msg12
   135 000001BA [0201000000000000] 
   136 000001C2 E819000000              call printmsg
   137 000001C7 488B0425[28010000]      mov rax,[number2]
   138 000001CF C0C802                  ror al,2
   139 000001D2 4889C7                  mov rdi,rax
   140 000001D5 E8(00000000)            call printb
   141 000001DA 4883C408                add rsp,8
   142 000001DE C9                      leave
   143 000001DF C3                      ret
   144                                  
   145                                  printmsg:
   146                                  section .data
   147 00000130 257300                  	.fmtstr db "%s",0
   148                                  section .text
   149 000001E0 48BF-                   	mov rdi,.fmtstr
   149 000001E2 [3001000000000000] 
   150 000001EA B800000000              	mov rax,0
   151 000001EF E8(00000000)            	call printf
   152 000001F4 C3                      	ret
   153                                  
